; Function Attrs: nounwind uwtable
define noalias nonnull ptr @l_Lean_DeclarationRange_ofFilePositions(ptr noundef readonly captures(none) %0, ptr noundef %1, ptr noundef %2) local_unnamed_addr #1 {
  %4 = ptrtoint ptr %1 to i64
  %5 = and i64 %4, 1
  %.not = icmp eq i64 %5, 0
  br i1 %.not, label %6, label %lean_inc.exit24

6:                                                ; preds = %3
  %.val.i = load i32, ptr %1, align 4, !tbaa !4
  %7 = icmp sgt i32 %.val.i, 0
  br i1 %7, label %8, label %10, !prof !9

8:                                                ; preds = %6
  %9 = add nuw i32 %.val.i, 1
  store i32 %9, ptr %1, align 4, !tbaa !4
  br label %lean_inc.exit24

10:                                               ; preds = %6
  %.not.i27 = icmp eq i32 %.val.i, 0
  br i1 %.not.i27, label %lean_inc.exit24, label %11

11:                                               ; preds = %10
  tail call void @lean_inc_ref_cold(ptr noundef nonnull %1) #4
  br label %lean_inc.exit24

lean_inc.exit24:                                  ; preds = %11, %10, %8, %3
  %12 = tail call ptr @l_Lean_FileMap_leanPosToLspPos(ptr noundef %0, ptr noundef %1)
  %13 = getelementptr inbounds nuw i8, ptr %12, i64 16
  %14 = load ptr, ptr %13, align 8, !tbaa !14
  %15 = ptrtoint ptr %14 to i64
  %16 = and i64 %15, 1
  %.not37 = icmp eq i64 %16, 0
  br i1 %.not37, label %17, label %lean_inc.exit23

17:                                               ; preds = %lean_inc.exit24
  %.val.i28 = load i32, ptr %14, align 4, !tbaa !4
  %18 = icmp sgt i32 %.val.i28, 0
  br i1 %18, label %19, label %21, !prof !9

19:                                               ; preds = %17
  %20 = add nuw i32 %.val.i28, 1
  store i32 %20, ptr %14, align 4, !tbaa !4
  br label %lean_inc.exit23

21:                                               ; preds = %17
  %.not.i29 = icmp eq i32 %.val.i28, 0
  br i1 %.not.i29, label %lean_inc.exit23, label %22

22:                                               ; preds = %21
  tail call void @lean_inc_ref_cold(ptr noundef nonnull %14) #4
  br label %lean_inc.exit23

lean_inc.exit23:                                  ; preds = %22, %21, %19, %lean_inc.exit24
  %23 = ptrtoint ptr %12 to i64
  %24 = and i64 %23, 1
  %.not38 = icmp eq i64 %24, 0
  br i1 %.not38, label %25, label %lean_dec.exit21

25:                                               ; preds = %lean_inc.exit23
  %26 = load i32, ptr %12, align 4, !tbaa !4
  %27 = icmp sgt i32 %26, 1
  br i1 %27, label %28, label %30, !prof !9

28:                                               ; preds = %25
  %29 = add nsw i32 %26, -1
  store i32 %29, ptr %12, align 4, !tbaa !4
  br label %lean_dec.exit21

30:                                               ; preds = %25
  %.not.i = icmp eq i32 %26, 0
  br i1 %.not.i, label %lean_dec.exit21, label %31

31:                                               ; preds = %30
  tail call void @lean_dec_ref_cold(ptr noundef nonnull %12) #4
  br label %lean_dec.exit21

lean_dec.exit21:                                  ; preds = %31, %30, %28, %lean_inc.exit23
  %32 = ptrtoint ptr %2 to i64
  %33 = and i64 %32, 1
  %.not39 = icmp eq i64 %33, 0
  br i1 %.not39, label %34, label %lean_inc.exit22

34:                                               ; preds = %lean_dec.exit21
  %.val.i31 = load i32, ptr %2, align 4, !tbaa !4
  %35 = icmp sgt i32 %.val.i31, 0
  br i1 %35, label %36, label %38, !prof !9

36:                                               ; preds = %34
  %37 = add nuw i32 %.val.i31, 1
  store i32 %37, ptr %2, align 4, !tbaa !4
  br label %lean_inc.exit22

38:                                               ; preds = %34
  %.not.i32 = icmp eq i32 %.val.i31, 0
  br i1 %.not.i32, label %lean_inc.exit22, label %39

39:                                               ; preds = %38
  tail call void @lean_inc_ref_cold(ptr noundef nonnull %2) #4
  br label %lean_inc.exit22

lean_inc.exit22:                                  ; preds = %39, %38, %36, %lean_dec.exit21
  %40 = tail call ptr @l_Lean_FileMap_leanPosToLspPos(ptr noundef %0, ptr noundef %2)
  %41 = getelementptr inbounds nuw i8, ptr %40, i64 16
  %42 = load ptr, ptr %41, align 8, !tbaa !14
  %43 = ptrtoint ptr %42 to i64
  %44 = and i64 %43, 1
  %.not40 = icmp eq i64 %44, 0
  br i1 %.not40, label %45, label %lean_inc.exit

45:                                               ; preds = %lean_inc.exit22
  %.val.i34 = load i32, ptr %42, align 4, !tbaa !4
  %46 = icmp sgt i32 %.val.i34, 0
  br i1 %46, label %47, label %49, !prof !9

47:                                               ; preds = %45
  %48 = add nuw i32 %.val.i34, 1
  store i32 %48, ptr %42, align 4, !tbaa !4
  br label %lean_inc.exit

49:                                               ; preds = %45
  %.not.i35 = icmp eq i32 %.val.i34, 0
  br i1 %.not.i35, label %lean_inc.exit, label %50

50:                                               ; preds = %49
  tail call void @lean_inc_ref_cold(ptr noundef nonnull %42) #4
  br label %lean_inc.exit

lean_inc.exit:                                    ; preds = %50, %49, %47, %lean_inc.exit22
  %51 = ptrtoint ptr %40 to i64
  %52 = and i64 %51, 1
  %.not41 = icmp eq i64 %52, 0
  br i1 %.not41, label %53, label %lean_dec.exit

53:                                               ; preds = %lean_inc.exit
  %54 = load i32, ptr %40, align 4, !tbaa !4
  %55 = icmp sgt i32 %54, 1
  br i1 %55, label %56, label %58, !prof !9

56:                                               ; preds = %53
  %57 = add nsw i32 %54, -1
  store i32 %57, ptr %40, align 4, !tbaa !4
  br label %lean_dec.exit

58:                                               ; preds = %53
  %.not.i25 = icmp eq i32 %54, 0
  br i1 %.not.i25, label %lean_dec.exit, label %59

59:                                               ; preds = %58
  tail call void @lean_dec_ref_cold(ptr noundef nonnull %40) #4
  br label %lean_dec.exit

lean_dec.exit:                                    ; preds = %59, %58, %56, %lean_inc.exit
  tail call void @lean_inc_heartbeat() #4
  %60 = tail call noalias ptr @mi_malloc_small(i64 noundef 40) #4
  %61 = icmp eq ptr %60, null
  br i1 %61, label %62, label %lean_alloc_ctor.exit

62:                                               ; preds = %lean_dec.exit
  tail call void @lean_internal_panic_out_of_memory() #5
  unreachable

lean_alloc_ctor.exit:                             ; preds = %lean_dec.exit
  %63 = getelementptr inbounds nuw i8, ptr %60, i64 4
  store i32 1, ptr %60, align 4, !tbaa !4
  store i32 262184, ptr %63, align 4
  %64 = getelementptr inbounds nuw i8, ptr %60, i64 8
  store ptr %1, ptr %64, align 8, !tbaa !14
  %65 = getelementptr inbounds nuw i8, ptr %60, i64 16
  store ptr %14, ptr %65, align 8, !tbaa !14
  %66 = getelementptr inbounds nuw i8, ptr %60, i64 24
  store ptr %2, ptr %66, align 8, !tbaa !14
  %67 = getelementptr inbounds nuw i8, ptr %60, i64 32
  store ptr %42, ptr %67, align 8, !tbaa !14
  ret ptr %60
}